; Function Attrs: nounwind uwtable
define internal i32 @camellia_cbc_cts_set_ctx_params(ptr noundef %0, ptr noundef %1) #0 {
  %3 = tail call ptr @OSSL_PARAM_locate_const(ptr noundef %1, ptr noundef nonnull @.str.1) #3
  %.not = icmp eq ptr %3, null
  br i1 %.not, label %14, label %4

4:                                                ; preds = %2
  %5 = getelementptr inbounds nuw i8, ptr %3, i64 8
  %6 = load i32, ptr %5, align 8, !tbaa !16
  %.not12 = icmp eq i32 %6, 4
  br i1 %.not12, label %7, label %16

7:                                                ; preds = %4
  %8 = getelementptr inbounds nuw i8, ptr %3, i64 16
  %9 = load ptr, ptr %8, align 8, !tbaa !18
  %10 = tail call i32 @ossl_cipher_cbc_cts_mode_name2id(ptr noundef %9) #3
  %11 = icmp slt i32 %10, 0
  br i1 %11, label %16, label %12

12:                                               ; preds = %7
  %13 = getelementptr inbounds nuw i8, ptr %0, i64 104
  store i32 %10, ptr %13, align 8, !tbaa !19
  br label %14

14:                                               ; preds = %12, %2
  %15 = tail call i32 @ossl_cipher_generic_set_ctx_params(ptr noundef %0, ptr noundef %1) #3
  br label %17

16:                                               ; preds = %7, %4
  tail call void @ERR_new() #3
  tail call void @ERR_set_debug(ptr noundef nonnull @.str.2, i32 noundef 85, ptr noundef nonnull @__func__.camellia_cbc_cts_set_ctx_params) #3
  tail call void (i32, i32, ptr, ...) @ERR_set_error(i32 noundef 57, i32 noundef 104, ptr noundef null) #3
  br label %17

17:                                               ; preds = %16, %14
  %.0 = phi i32 [ 0, %16 ], [ %15, %14 ]
  ret i32 %.0
}